Certificate:
    Data:
        Version: 3 (0x2)
        Serial Number: 1 (0x1)
    Signature Algorithm: sha1WithRSAEncryption
        Issuer: C=US, ST=Unset, L=Unset, O=Unset, CN=www.example.com
        Validity
            Not Before: Oct 12 12:53:52 2014 GMT
            Not After : Oct  9 12:53:52 2024 GMT
        Subject: C=US, ST=Unset, O=Unset, CN=www.example.com
        Subject Public Key Info:
            Public Key Algorithm: rsaEncryption
                Public-Key: (2048 bit)
                Modulus:
                    00:a4:fb:19:3a:af:c5:24:e7:28:b1:03:e4:9e:4e:
                    58:a2:2e:08:d9:64:0c:cd:39:07:a3:d5:e3:fc:f8:
                    80:12:60:3d:40:55:1e:7c:69:c4:a9:44:74:b6:a6:
                    34:d1:ce:f3:e4:a1:e1:bf:81:96:22:a2:eb:c7:a8:
                    ae:01:72:22:a5:75:f4:64:54:4f:93:6b:f5:3c:96:
                    7e:1a:d1:cc:2c:0d:c5:1a:23:46:ac:73:a9:9c:c4:
                    01:14:ae:48:f5:a7:3f:cf:75:2c:45:54:74:b9:40:
                    7a:49:a1:e1:a4:67:26:1b:0a:17:38:bc:8d:14:65:
                    cf:09:e3:ac:1b:06:a6:5b:cb:4c:5f:46:fa:76:fe:
                    50:94:d4:1d:6d:32:2e:22:7d:db:51:3f:95:72:d1:
                    74:41:01:9a:71:f6:bf:0e:20:40:0f:41:39:08:e6:
                    ce:e2:c2:db:a5:07:5e:6b:28:20:56:79:79:b8:ce:
                    2b:83:5d:08:63:cc:e2:5f:06:a2:5e:63:d6:a0:65:
                    99:18:ec:4c:68:31:aa:75:e5:85:ea:c1:17:1b:34:
                    e8:22:43:ac:ec:ea:6d:60:07:a2:aa:95:5a:74:c6:
                    28:09:b9:18:f9:a7:86:72:a1:6e:f4:7e:da:38:d6:
                    a1:a5:f0:22:94:5a:36:9c:23:99:a8:35:de:1c:95:
                    89:55
                Exponent: 65537 (0x10001)
        X509v3 extensions:
            X509v3 Basic Constraints: 
                CA:FALSE
            X509v3 Subject Key Identifier: 
                CB:FD:5D:69:2B:07:05:FD:4B:E1:D0:83:DB:EC:A0:65:03:3E:28:ED
            X509v3 Authority Key Identifier: 
                keyid:DD:18:1B:C1:82:E2:F7:9B:A6:AA:66:97:88:78:2A:36:EB:08:95:B2

    Signature Algorithm: sha1WithRSAEncryption
         4c:86:85:6d:6d:23:de:37:bf:fd:be:2e:a1:5d:ec:e7:7d:36:
         3c:e0:1e:90:d1:03:3e:ad:05:1b:46:35:fb:25:78:58:bf:0e:
         d3:aa:07:4b:fa:d2:87:4e:08:23:74:14:6e:b1:ba:9e:bc:1b:
         3b:f4:2a:ce:78:d0:15:41:1a:ab:81:98:f7:c8:63:89:b5:e3:
         37:58:b6:31:b8:00:92:a2:03:7f:b3:5e:2b:22:a7:c8:ca:9a:
         0c:e6:b0:17:ab:04:e3:5e:90:88:f2:72:38:34:f0:a5:d3:09:
         29:c5:d9:93:ad:ab:88:04:37:84:98:48:77:ac:c4:f3:73:98:
         db:3a:88:ea:04:bf:ae:c7:d6:76:4a:d6:47:55:a7:1f:c1:ac:
         e1:35:1b:c8:c4:5a:e9:a7:20:c0:3e:21:c5:55:00:2b:0d:69:
         aa:1f:4b:89:4a:33:86:ae:1c:5f:b1:fa:b3:e0:62:cc:84:51:
         25:41:55:63:15:cf:1d:12:be:98:c4:cd:39:fe:91:d4:2f:52:
         c8:ff:ca:13:3c:03:45:b3:84:0a:3a:da:83:c6:15:0a:89:e9:
         38:8a:c5:66:2b:e0:62:97:c1:8d:6a:4b:b0:61:26:72:1d:f2:
         b9:1d:5c:16:cd:e5:b1:2b:3f:9d:3c:fc:33:c9:4f:0f:48:36:
         45:17:91:fd
-----BEGIN CERTIFICATE-----
MIIDZjCCAk6gAwIBAgIBATANBgkqhkiG9w0BAQUFADBXMQswCQYDVQQGEwJVUzEO
MAwGA1UECAwFVW5zZXQxDjAMBgNVBAcMBVVuc2V0MQ4wDAYDVQQKDAVVbnNldDEY
MBYGA1UEAwwPd3d3LmV4YW1wbGUuY29tMB4XDTE0MTAxMjEyNTM1MloXDTI0MTAw
OTEyNTM1MlowRzELMAkGA1UEBhMCVVMxDjAMBgNVBAgMBVVuc2V0MQ4wDAYDVQQK
DAVVbnNldDEYMBYGA1UEAwwPd3d3LmV4YW1wbGUuY29tMIIBIjANBgkqhkiG9w0B
AQEFAAOCAQ8AMIIBCgKCAQEApPsZOq/FJOcosQPknk5Yoi4I2WQMzTkHo9Xj/PiA
EmA9QFUefGnEqUR0tqY00c7z5KHhv4GWIqLrx6iuAXIipXX0ZFRPk2v1PJZ+GtHM
LA3FGiNGrHOpnMQBFK5I9ac/z3UsRVR0uUB6SaHhpGcmGwoXOLyNFGXPCeOsGwam
W8tMX0b6dv5QlNQdbTIuIn3bUT+VctF0QQGacfa/DiBAD0E5CObO4sLbpQdeaygg
Vnl5uM4rg10IY8ziXwaiXmPWoGWZGOxMaDGqdeWF6sEXGzToIkOs7OptYAeiqpVa
dMYoCbkY+aeGcqFu9H7aONahpfAilFo2nCOZqDXeHJWJVQIDAQABo00wSzAJBgNV
HRMEAjAAMB0GA1UdDgQWBBTL/V1pKwcF/Uvh0IPb7KBlAz4o7TAfBgNVHSMEGDAW
gBTdGBvBguL3m6aqZpeIeCo26wiVsjANBgkqhkiG9w0BAQUFAAOCAQEATIaFbW0j
3je//b4uoV3s5302POAekNEDPq0FG0Y1+yV4WL8O06oHS/rSh04II3QUbrG6nrwb
O/QqznjQFUEaq4GY98hjibXjN1i2MbgAkqIDf7NeKyKnyMqaDOawF6sE416QiPJy
ODTwpdMJKcXZk62riAQ3hJhId6zE83OY2zqI6gS/rsfWdkrWR1WnH8Gs4TUbyMRa
6acgwD4hxVUAKw1pqh9LiUozhq4cX7H6s+BizIRRJUFVYxXPHRK+mMTNOf6R1C9S
yP/KEzwDRbOECjrag8YVConpOIrFZivgYpfBjWpLsGEmch3yuR1cFs3lsSs/nTz8
M8lPD0g2RReR/Q==
-----END CERTIFICATE-----
