Certificate:
    Data:
        Version: 3 (0x2)
        Serial Number: 1 (0x1)
    Signature Algorithm: sha1WithRSAEncryption
        Issuer: C=US, ST=Unset, L=Unset, O=Unset, CN=www.example.com
        Validity
            Not Before: Jul 24 12:06:14 2014 GMT
            Not After : Jul 21 12:06:14 2024 GMT
        Subject: C=US, ST=Unset, O=Unset, CN=www.example.com
        Subject Public Key Info:
            Public Key Algorithm: rsaEncryption
                Public-Key: (2048 bit)
                Modulus:
                    00:bd:5d:61:cd:99:06:47:7d:1c:4e:39:0a:81:65:
                    2a:19:d7:6d:b1:95:9a:d8:a9:1a:ce:62:de:61:d8:
                    2d:00:15:0a:3b:90:d2:43:db:3c:7e:66:98:14:e2:
                    09:07:01:c2:dd:17:7d:27:ee:4e:bf:e9:13:78:d0:
                    1c:e6:3d:13:d9:2d:fd:a9:be:95:09:9c:ed:cd:20:
                    a6:3a:75:7a:bc:09:66:06:d2:be:2a:e8:a8:7f:ca:
                    7a:b8:3a:32:04:74:61:83:40:7e:13:77:a9:51:2a:
                    97:4e:11:91:bf:df:29:91:02:51:02:7f:87:b8:c2:
                    68:aa:1e:5c:2b:d1:59:bf:18:e7:52:b3:5e:ba:c4:
                    d2:0c:b6:c5:54:10:14:fe:7e:a4:bd:41:b0:d4:88:
                    ff:a4:39:4e:80:d4:4e:81:05:f5:fd:92:f4:4c:cb:
                    8d:e4:d1:ff:83:30:1c:5f:fa:7e:9e:57:b8:bd:de:
                    f5:29:5c:a5:f3:56:54:98:d2:08:ad:97:18:8a:88:
                    40:42:72:1b:48:99:c8:f5:8e:40:a1:3a:ea:70:b7:
                    90:5f:25:39:02:f3:d5:dd:7d:85:12:d9:0c:16:f6:
                    8d:5f:2f:8e:8b:d8:ae:07:ef:17:75:fe:ca:d3:27:
                    ca:a3:32:59:91:d3:4f:37:bc:2d:37:bc:0f:5c:d8:
                    30:8f
                Exponent: 65537 (0x10001)
        X509v3 extensions:
            X509v3 Basic Constraints: 
                CA:FALSE
            X509v3 Subject Key Identifier: 
                CB:8E:78:45:C8:8B:EA:16:52:ED:24:9F:15:E2:84:4A:EC:75:17:7E
            X509v3 Authority Key Identifier: 
                keyid:CE:41:02:0D:91:63:35:D3:F3:94:AB:99:B6:93:29:71:B8:E7:17:6B

    Signature Algorithm: sha1WithRSAEncryption
         05:35:8a:92:90:f6:57:92:00:5d:f9:85:b1:b9:a3:96:65:f0:
         67:b7:f8:a3:98:9c:ac:ec:c2:22:ec:91:0d:b0:60:d6:de:ff:
         3b:33:f4:3d:4c:97:84:06:bf:6c:3b:77:46:43:9a:93:18:39:
         b3:c0:62:a7:30:21:8d:31:ca:44:e8:2d:7c:f9:41:2d:bb:46:
         67:ed:58:88:2e:e5:43:93:58:bb:62:1b:ce:cb:be:c6:7c:be:
         d7:71:ad:38:fb:57:a9:6b:5d:90:96:7e:f5:8b:b2:56:74:6e:
         f9:2e:7e:10:a4:69:f1:b8:30:2f:b6:0c:59:9c:c5:45:53:01:
         d4:d6:da:d9:ad:5d:c4:5a:8f:e6:6c:10:84:30:a4:4d:88:d4:
         fa:6f:0e:ab:1b:ec:db:49:75:13:ae:55:43:89:32:87:fa:8a:
         42:0e:53:41:94:7f:6c:03:6f:7f:2c:ad:bd:3a:61:dc:23:5d:
         af:05:0c:05:95:45:87:7e:1b:de:2e:4e:69:d4:be:83:c7:80:
         8e:db:63:69:3d:9b:90:ea:f0:8f:48:f8:1f:4b:cc:d9:3f:a8:
         8e:30:47:92:39:c3:30:9b:f9:fe:fd:69:6c:da:18:b6:98:a9:
         54:bd:fb:dd:3a:8f:21:5f:a0:4a:a7:fd:be:cb:19:41:a5:00:
         36:d4:b8:99
-----BEGIN CERTIFICATE-----
MIIDZjCCAk6gAwIBAgIBATANBgkqhkiG9w0BAQUFADBXMQswCQYDVQQGEwJVUzEO
MAwGA1UECAwFVW5zZXQxDjAMBgNVBAcMBVVuc2V0MQ4wDAYDVQQKDAVVbnNldDEY
MBYGA1UEAwwPd3d3LmV4YW1wbGUuY29tMB4XDTE0MDcyNDEyMDYxNFoXDTI0MDcy
MTEyMDYxNFowRzELMAkGA1UEBhMCVVMxDjAMBgNVBAgMBVVuc2V0MQ4wDAYDVQQK
DAVVbnNldDEYMBYGA1UEAwwPd3d3LmV4YW1wbGUuY29tMIIBIjANBgkqhkiG9w0B
AQEFAAOCAQ8AMIIBCgKCAQEAvV1hzZkGR30cTjkKgWUqGddtsZWa2KkazmLeYdgt
ABUKO5DSQ9s8fmaYFOIJBwHC3Rd9J+5Ov+kTeNAc5j0T2S39qb6VCZztzSCmOnV6
vAlmBtK+Kuiof8p6uDoyBHRhg0B+E3epUSqXThGRv98pkQJRAn+HuMJoqh5cK9FZ
vxjnUrNeusTSDLbFVBAU/n6kvUGw1Ij/pDlOgNROgQX1/ZL0TMuN5NH/gzAcX/p+
nle4vd71KVyl81ZUmNIIrZcYiohAQnIbSJnI9Y5AoTrqcLeQXyU5AvPV3X2FEtkM
FvaNXy+Oi9iuB+8Xdf7K0yfKozJZkdNPN7wtN7wPXNgwjwIDAQABo00wSzAJBgNV
HRMEAjAAMB0GA1UdDgQWBBTLjnhFyIvqFlLtJJ8V4oRK7HUXfjAfBgNVHSMEGDAW
gBTOQQINkWM10/OUq5m2kylxuOcXazANBgkqhkiG9w0BAQUFAAOCAQEABTWKkpD2
V5IAXfmFsbmjlmXwZ7f4o5icrOzCIuyRDbBg1t7/OzP0PUyXhAa/bDt3RkOakxg5
s8BipzAhjTHKROgtfPlBLbtGZ+1YiC7lQ5NYu2Ibzsu+xny+13GtOPtXqWtdkJZ+
9YuyVnRu+S5+EKRp8bgwL7YMWZzFRVMB1Nba2a1dxFqP5mwQhDCkTYjU+m8Oqxvs
20l1E65VQ4kyh/qKQg5TQZR/bANvfyytvTph3CNdrwUMBZVFh34b3i5OadS+g8eA
jttjaT2bkOrwj0j4H0vM2T+ojjBHkjnDMJv5/v1pbNoYtpipVL373TqPIV+gSqf9
vssZQaUANtS4mQ==
-----END CERTIFICATE-----
